target datalayout = "e-m:e-p270:32:32-p271:32:32-p272:64:64-i64:64-i128:128-f80:128-n8:16:32:64-S128"
target triple = "x86_64-pc-linux-gnu"

%struct.IDAMemRec = type { double, ptr, ptr, i32, double, double, ptr, i32, ptr, ptr, i32, ptr, ptr, i32, i32, double, double, ptr, i32, i32, i32, ptr, ptr, i32, ptr, ptr, ptr, i32, double, i32, i32, double, ptr, ptr, i32, ptr, ptr, i32, i32, i32, double, ptr, ptr, [6 x ptr], [6 x double], [6 x double], [6 x double], [6 x double], [6 x double], ptr, ptr, ptr, ptr, ptr, ptr, ptr, ptr, ptr, ptr, ptr, ptr, ptr, ptr, ptr, [6 x ptr], ptr, ptr, ptr, ptr, [6 x ptr], ptr, ptr, ptr, ptr, ptr, ptr, ptr, ptr, ptr, ptr, ptr, ptr, ptr, ptr, [6 x ptr], ptr, ptr, ptr, ptr, ptr, double, ptr, ptr, i32, i32, i32, i32, i32, i32, i32, double, double, double, i32, double, i32, i32, i32, i32, double, double, double, double, double, double, double, double, double, double, double, double, double, double, i32, i32, i32, i32, i32, i64, double, i32, i64, i64, i64, i64, i64, i64, i64, i64, i64, i64, i64, i64, i64, i64, i64, i64, i64, i64, i64, i64, i64, i64, i64, i64, ptr, ptr, ptr, i32, i32, i32, i32, i32, i32, i32, i32, i32, i32, i32, i32, i32, ptr, ptr, ptr, ptr, ptr, ptr, i32, i32, i32, i32, i32, i32, double, double, double, ptr, i32, ptr, ptr, double, double, double, ptr, ptr, ptr, double, double, i32, i32, i64, ptr, i32, i32, ptr, i32 }
%struct.IDADlsMemRec = type { i32, i64, i64, i64, i64, i32, ptr, ptr, ptr, ptr, ptr, ptr, i64, i64, i64 }
%struct._DlsMat = type { i32, i64, i64, i64, i64, i64, i64, ptr, i64, ptr }

; Function Attrs: nounwind uwtable
define i32 @idaDlsDenseDQJac(i64 noundef %0, double noundef %1, double noundef %2, ptr noundef %3, ptr noundef %4, ptr noundef %5, ptr noundef %6, ptr noundef %7, ptr noundef %8, ptr noundef %9, ptr noundef %10) #0 {
  %12 = alloca i64, align 8
  %13 = alloca double, align 8
  %14 = alloca double, align 8
  %15 = alloca ptr, align 8
  %16 = alloca ptr, align 8
  %17 = alloca ptr, align 8
  %18 = alloca ptr, align 8
  %19 = alloca ptr, align 8
  %20 = alloca ptr, align 8
  %21 = alloca ptr, align 8
  %22 = alloca ptr, align 8
  %23 = alloca double, align 8
  %24 = alloca double, align 8
  %25 = alloca double, align 8
  %26 = alloca double, align 8
  %27 = alloca double, align 8
  %28 = alloca double, align 8
  %29 = alloca ptr, align 8
  %30 = alloca ptr, align 8
  %31 = alloca ptr, align 8
  %32 = alloca ptr, align 8
  %33 = alloca ptr, align 8
  %34 = alloca ptr, align 8
  %35 = alloca ptr, align 8
  %36 = alloca i64, align 8
  %37 = alloca i32, align 4
  %38 = alloca ptr, align 8
  %39 = alloca ptr, align 8
  store i64 %0, ptr %12, align 8, !tbaa !31
  store double %1, ptr %13, align 8, !tbaa !39
  store double %2, ptr %14, align 8, !tbaa !39
  store ptr %3, ptr %15, align 8, !tbaa !40
  store ptr %4, ptr %16, align 8, !tbaa !40
  store ptr %5, ptr %17, align 8, !tbaa !40
  store ptr %6, ptr %18, align 8, !tbaa !41
  store ptr %7, ptr %19, align 8, !tbaa !3
  store ptr %8, ptr %20, align 8, !tbaa !40
  store ptr %9, ptr %21, align 8, !tbaa !40
  store ptr %10, ptr %22, align 8, !tbaa !40
  call void @llvm.lifetime.start.p0(i64 8, ptr %23) #6
  call void @llvm.lifetime.start.p0(i64 8, ptr %24) #6
  call void @llvm.lifetime.start.p0(i64 8, ptr %25) #6
  call void @llvm.lifetime.start.p0(i64 8, ptr %26) #6
  call void @llvm.lifetime.start.p0(i64 8, ptr %27) #6
  call void @llvm.lifetime.start.p0(i64 8, ptr %28) #6
  call void @llvm.lifetime.start.p0(i64 8, ptr %29) #6
  call void @llvm.lifetime.start.p0(i64 8, ptr %30) #6
  call void @llvm.lifetime.start.p0(i64 8, ptr %31) #6
  call void @llvm.lifetime.start.p0(i64 8, ptr %32) #6
  call void @llvm.lifetime.start.p0(i64 8, ptr %33) #6
  store ptr null, ptr %33, align 8, !tbaa !42
  call void @llvm.lifetime.start.p0(i64 8, ptr %34) #6
  call void @llvm.lifetime.start.p0(i64 8, ptr %35) #6
  call void @llvm.lifetime.start.p0(i64 8, ptr %36) #6
  call void @llvm.lifetime.start.p0(i64 4, ptr %37) #6
  store i32 0, ptr %37, align 4, !tbaa !43
  call void @llvm.lifetime.start.p0(i64 8, ptr %38) #6
  call void @llvm.lifetime.start.p0(i64 8, ptr %39) #6
  %40 = load ptr, ptr %19, align 8, !tbaa !3
  store ptr %40, ptr %38, align 8, !tbaa !7
  %41 = load ptr, ptr %38, align 8, !tbaa !7
  %42 = getelementptr inbounds nuw %struct.IDAMemRec, ptr %41, i32 0, i32 176
  %43 = load ptr, ptr %42, align 8, !tbaa !9
  store ptr %43, ptr %39, align 8, !tbaa !20
  %44 = load ptr, ptr %21, align 8, !tbaa !40
  %45 = call ptr @N_VGetArrayPointer(ptr noundef %44)
  store ptr %45, ptr %29, align 8, !tbaa !42
  %46 = load ptr, ptr %20, align 8, !tbaa !40
  store ptr %46, ptr %34, align 8, !tbaa !40
  %47 = load ptr, ptr %21, align 8, !tbaa !40
  store ptr %47, ptr %35, align 8, !tbaa !40
  %48 = load ptr, ptr %38, align 8, !tbaa !7
  %49 = getelementptr inbounds nuw %struct.IDAMemRec, ptr %48, i32 0, i32 49
  %50 = load ptr, ptr %49, align 8, !tbaa !44
  %51 = call ptr @N_VGetArrayPointer(ptr noundef %50)
  store ptr %51, ptr %32, align 8, !tbaa !42
  %52 = load ptr, ptr %15, align 8, !tbaa !40
  %53 = call ptr @N_VGetArrayPointer(ptr noundef %52)
  store ptr %53, ptr %30, align 8, !tbaa !42
  %54 = load ptr, ptr %16, align 8, !tbaa !40
  %55 = call ptr @N_VGetArrayPointer(ptr noundef %54)
  store ptr %55, ptr %31, align 8, !tbaa !42
  %56 = load ptr, ptr %38, align 8, !tbaa !7
  %57 = getelementptr inbounds nuw %struct.IDAMemRec, ptr %56, i32 0, i32 54
  %58 = load ptr, ptr %57, align 8, !tbaa !45
  %59 = icmp ne ptr %58, null
  br i1 %59, label %60, label %65

60:                                               ; preds = %11
  %61 = load ptr, ptr %38, align 8, !tbaa !7
  %62 = getelementptr inbounds nuw %struct.IDAMemRec, ptr %61, i32 0, i32 54
  %63 = load ptr, ptr %62, align 8, !tbaa !45
  %64 = call ptr @N_VGetArrayPointer(ptr noundef %63)
  store ptr %64, ptr %33, align 8, !tbaa !42
  br label %65

65:                                               ; preds = %60, %11
  %66 = load ptr, ptr %38, align 8, !tbaa !7
  %67 = getelementptr inbounds nuw %struct.IDAMemRec, ptr %66, i32 0, i32 0
  %68 = load double, ptr %67, align 8, !tbaa !46
  %69 = call double @SUNRsqrt(double noundef %68)
  store double %69, ptr %27, align 8, !tbaa !39
  store i64 0, ptr %36, align 8, !tbaa !31
  br label %70

70:                                               ; preds = %262, %65
  %71 = load i64, ptr %36, align 8, !tbaa !31
  %72 = load i64, ptr %12, align 8, !tbaa !31
  %73 = icmp slt i64 %71, %72
  br i1 %73, label %74, label %265

74:                                               ; preds = %70
  %75 = load ptr, ptr %18, align 8, !tbaa !41
  %76 = getelementptr inbounds nuw %struct._DlsMat, ptr %75, i32 0, i32 9
  %77 = load ptr, ptr %76, align 8, !tbaa !47
  %78 = load i64, ptr %36, align 8, !tbaa !31
  %79 = getelementptr inbounds ptr, ptr %77, i64 %78
  %80 = load ptr, ptr %79, align 8, !tbaa !42
  %81 = load ptr, ptr %35, align 8, !tbaa !40
  call void @N_VSetArrayPointer(ptr noundef %80, ptr noundef %81)
  %82 = load ptr, ptr %30, align 8, !tbaa !42
  %83 = load i64, ptr %36, align 8, !tbaa !31
  %84 = getelementptr inbounds double, ptr %82, i64 %83
  %85 = load double, ptr %84, align 8, !tbaa !39
  store double %85, ptr %25, align 8, !tbaa !39
  %86 = load ptr, ptr %31, align 8, !tbaa !42
  %87 = load i64, ptr %36, align 8, !tbaa !31
  %88 = getelementptr inbounds double, ptr %86, i64 %87
  %89 = load double, ptr %88, align 8, !tbaa !39
  store double %89, ptr %26, align 8, !tbaa !39
  %90 = load double, ptr %27, align 8, !tbaa !39
  %91 = load double, ptr %25, align 8, !tbaa !39
  %92 = call double @SUNRabs(double noundef %91)
  %93 = load ptr, ptr %38, align 8, !tbaa !7
  %94 = getelementptr inbounds nuw %struct.IDAMemRec, ptr %93, i32 0, i32 110
  %95 = load double, ptr %94, align 8, !tbaa !50
  %96 = load double, ptr %26, align 8, !tbaa !39
  %97 = fmul double %95, %96
  %98 = call double @SUNRabs(double noundef %97)
  %99 = fcmp ogt double %92, %98
  br i1 %99, label %100, label %103

100:                                              ; preds = %74
  %101 = load double, ptr %25, align 8, !tbaa !39
  %102 = call double @SUNRabs(double noundef %101)
  br label %110

103:                                              ; preds = %74
  %104 = load ptr, ptr %38, align 8, !tbaa !7
  %105 = getelementptr inbounds nuw %struct.IDAMemRec, ptr %104, i32 0, i32 110
  %106 = load double, ptr %105, align 8, !tbaa !50
  %107 = load double, ptr %26, align 8, !tbaa !39
  %108 = fmul double %106, %107
  %109 = call double @SUNRabs(double noundef %108)
  br label %110

110:                                              ; preds = %103, %100
  %111 = phi double [ %102, %100 ], [ %109, %103 ]
  %112 = fmul double %90, %111
  %113 = load ptr, ptr %32, align 8, !tbaa !42
  %114 = load i64, ptr %36, align 8, !tbaa !31
  %115 = getelementptr inbounds double, ptr %113, i64 %114
  %116 = load double, ptr %115, align 8, !tbaa !39
  %117 = fdiv double 1.000000e+00, %116
  %118 = fcmp ogt double %112, %117
  br i1 %118, label %119, label %143

119:                                              ; preds = %110
  %120 = load double, ptr %27, align 8, !tbaa !39
  %121 = load double, ptr %25, align 8, !tbaa !39
  %122 = call double @SUNRabs(double noundef %121)
  %123 = load ptr, ptr %38, align 8, !tbaa !7
  %124 = getelementptr inbounds nuw %struct.IDAMemRec, ptr %123, i32 0, i32 110
  %125 = load double, ptr %124, align 8, !tbaa !50
  %126 = load double, ptr %26, align 8, !tbaa !39
  %127 = fmul double %125, %126
  %128 = call double @SUNRabs(double noundef %127)
  %129 = fcmp ogt double %122, %128
  br i1 %129, label %130, label %133

130:                                              ; preds = %119
  %131 = load double, ptr %25, align 8, !tbaa !39
  %132 = call double @SUNRabs(double noundef %131)
  br label %140

133:                                              ; preds = %119
  %134 = load ptr, ptr %38, align 8, !tbaa !7
  %135 = getelementptr inbounds nuw %struct.IDAMemRec, ptr %134, i32 0, i32 110
  %136 = load double, ptr %135, align 8, !tbaa !50
  %137 = load double, ptr %26, align 8, !tbaa !39
  %138 = fmul double %136, %137
  %139 = call double @SUNRabs(double noundef %138)
  br label %140

140:                                              ; preds = %133, %130
  %141 = phi double [ %132, %130 ], [ %139, %133 ]
  %142 = fmul double %120, %141
  br label %149

143:                                              ; preds = %110
  %144 = load ptr, ptr %32, align 8, !tbaa !42
  %145 = load i64, ptr %36, align 8, !tbaa !31
  %146 = getelementptr inbounds double, ptr %144, i64 %145
  %147 = load double, ptr %146, align 8, !tbaa !39
  %148 = fdiv double 1.000000e+00, %147
  br label %149

149:                                              ; preds = %143, %140
  %150 = phi double [ %142, %140 ], [ %148, %143 ]
  store double %150, ptr %23, align 8, !tbaa !39
  %151 = load ptr, ptr %38, align 8, !tbaa !7
  %152 = getelementptr inbounds nuw %struct.IDAMemRec, ptr %151, i32 0, i32 110
  %153 = load double, ptr %152, align 8, !tbaa !50
  %154 = load double, ptr %26, align 8, !tbaa !39
  %155 = fmul double %153, %154
  %156 = fcmp olt double %155, 0.000000e+00
  br i1 %156, label %157, label %160

157:                                              ; preds = %149
  %158 = load double, ptr %23, align 8, !tbaa !39
  %159 = fneg double %158
  store double %159, ptr %23, align 8, !tbaa !39
  br label %160

160:                                              ; preds = %157, %149
  %161 = load double, ptr %25, align 8, !tbaa !39
  %162 = load double, ptr %23, align 8, !tbaa !39
  %163 = fadd double %161, %162
  %164 = load double, ptr %25, align 8, !tbaa !39
  %165 = fsub double %163, %164
  store double %165, ptr %23, align 8, !tbaa !39
  %166 = load ptr, ptr %38, align 8, !tbaa !7
  %167 = getelementptr inbounds nuw %struct.IDAMemRec, ptr %166, i32 0, i32 54
  %168 = load ptr, ptr %167, align 8, !tbaa !45
  %169 = icmp ne ptr %168, null
  br i1 %169, label %170, label %206

170:                                              ; preds = %160
  %171 = load ptr, ptr %33, align 8, !tbaa !42
  %172 = load i64, ptr %36, align 8, !tbaa !31
  %173 = getelementptr inbounds double, ptr %171, i64 %172
  %174 = load double, ptr %173, align 8, !tbaa !39
  store double %174, ptr %28, align 8, !tbaa !39
  %175 = load double, ptr %28, align 8, !tbaa !39
  %176 = call double @SUNRabs(double noundef %175)
  %177 = fcmp oeq double %176, 1.000000e+00
  br i1 %177, label %178, label %189

178:                                              ; preds = %170
  %179 = load double, ptr %25, align 8, !tbaa !39
  %180 = load double, ptr %23, align 8, !tbaa !39
  %181 = fadd double %179, %180
  %182 = load double, ptr %28, align 8, !tbaa !39
  %183 = fmul double %181, %182
  %184 = fcmp olt double %183, 0.000000e+00
  br i1 %184, label %185, label %188

185:                                              ; preds = %178
  %186 = load double, ptr %23, align 8, !tbaa !39
  %187 = fneg double %186
  store double %187, ptr %23, align 8, !tbaa !39
  br label %188

188:                                              ; preds = %185, %178
  br label %205

189:                                              ; preds = %170
  %190 = load double, ptr %28, align 8, !tbaa !39
  %191 = call double @SUNRabs(double noundef %190)
  %192 = fcmp oeq double %191, 2.000000e+00
  br i1 %192, label %193, label %204

193:                                              ; preds = %189
  %194 = load double, ptr %25, align 8, !tbaa !39
  %195 = load double, ptr %23, align 8, !tbaa !39
  %196 = fadd double %194, %195
  %197 = load double, ptr %28, align 8, !tbaa !39
  %198 = fmul double %196, %197
  %199 = fcmp ole double %198, 0.000000e+00
  br i1 %199, label %200, label %203

200:                                              ; preds = %193
  %201 = load double, ptr %23, align 8, !tbaa !39
  %202 = fneg double %201
  store double %202, ptr %23, align 8, !tbaa !39
  br label %203

203:                                              ; preds = %200, %193
  br label %204

204:                                              ; preds = %203, %189
  br label %205

205:                                              ; preds = %204, %188
  br label %206

206:                                              ; preds = %205, %160
  %207 = load double, ptr %23, align 8, !tbaa !39
  %208 = load ptr, ptr %30, align 8, !tbaa !42
  %209 = load i64, ptr %36, align 8, !tbaa !31
  %210 = getelementptr inbounds double, ptr %208, i64 %209
  %211 = load double, ptr %210, align 8, !tbaa !39
  %212 = fadd double %211, %207
  store double %212, ptr %210, align 8, !tbaa !39
  %213 = load double, ptr %14, align 8, !tbaa !39
  %214 = load double, ptr %23, align 8, !tbaa !39
  %215 = load ptr, ptr %31, align 8, !tbaa !42
  %216 = load i64, ptr %36, align 8, !tbaa !31
  %217 = getelementptr inbounds double, ptr %215, i64 %216
  %218 = load double, ptr %217, align 8, !tbaa !39
  %219 = call double @llvm.fmuladd.f64(double %213, double %214, double %218)
  store double %219, ptr %217, align 8, !tbaa !39
  %220 = load ptr, ptr %38, align 8, !tbaa !7
  %221 = getelementptr inbounds nuw %struct.IDAMemRec, ptr %220, i32 0, i32 1
  %222 = load ptr, ptr %221, align 8, !tbaa !51
  %223 = load double, ptr %13, align 8, !tbaa !39
  %224 = load ptr, ptr %15, align 8, !tbaa !40
  %225 = load ptr, ptr %16, align 8, !tbaa !40
  %226 = load ptr, ptr %34, align 8, !tbaa !40
  %227 = load ptr, ptr %38, align 8, !tbaa !7
  %228 = getelementptr inbounds nuw %struct.IDAMemRec, ptr %227, i32 0, i32 2
  %229 = load ptr, ptr %228, align 8, !tbaa !52
  %230 = call i32 %222(double noundef %223, ptr noundef %224, ptr noundef %225, ptr noundef %226, ptr noundef %229)
  store i32 %230, ptr %37, align 4, !tbaa !43
  %231 = load ptr, ptr %39, align 8, !tbaa !20
  %232 = getelementptr inbounds nuw %struct.IDADlsMemRec, ptr %231, i32 0, i32 13
  %233 = load i64, ptr %232, align 8, !tbaa !35
  %234 = add nsw i64 %233, 1
  store i64 %234, ptr %232, align 8, !tbaa !35
  %235 = load i32, ptr %37, align 4, !tbaa !43
  %236 = icmp ne i32 %235, 0
  br i1 %236, label %237, label %238

237:                                              ; preds = %206
  br label %265

238:                                              ; preds = %206
  %239 = load double, ptr %23, align 8, !tbaa !39
  %240 = fdiv double 1.000000e+00, %239
  store double %240, ptr %24, align 8, !tbaa !39
  %241 = load double, ptr %24, align 8, !tbaa !39
  %242 = load ptr, ptr %34, align 8, !tbaa !40
  %243 = load double, ptr %24, align 8, !tbaa !39
  %244 = fneg double %243
  %245 = load ptr, ptr %17, align 8, !tbaa !40
  %246 = load ptr, ptr %35, align 8, !tbaa !40
  call void @N_VLinearSum(double noundef %241, ptr noundef %242, double noundef %244, ptr noundef %245, ptr noundef %246)
  %247 = load ptr, ptr %35, align 8, !tbaa !40
  %248 = call ptr @N_VGetArrayPointer(ptr noundef %247)
  %249 = load ptr, ptr %18, align 8, !tbaa !41
  %250 = getelementptr inbounds nuw %struct._DlsMat, ptr %249, i32 0, i32 9
  %251 = load ptr, ptr %250, align 8, !tbaa !47
  %252 = load i64, ptr %36, align 8, !tbaa !31
  %253 = getelementptr inbounds ptr, ptr %251, i64 %252
  store ptr %248, ptr %253, align 8, !tbaa !42
  %254 = load double, ptr %25, align 8, !tbaa !39
  %255 = load ptr, ptr %30, align 8, !tbaa !42
  %256 = load i64, ptr %36, align 8, !tbaa !31
  %257 = getelementptr inbounds double, ptr %255, i64 %256
  store double %254, ptr %257, align 8, !tbaa !39
  %258 = load double, ptr %26, align 8, !tbaa !39
  %259 = load ptr, ptr %31, align 8, !tbaa !42
  %260 = load i64, ptr %36, align 8, !tbaa !31
  %261 = getelementptr inbounds double, ptr %259, i64 %260
  store double %258, ptr %261, align 8, !tbaa !39
  br label %262

262:                                              ; preds = %238
  %263 = load i64, ptr %36, align 8, !tbaa !31
  %264 = add nsw i64 %263, 1
  store i64 %264, ptr %36, align 8, !tbaa !31
  br label %70, !llvm.loop !53

265:                                              ; preds = %237, %70
  %266 = load ptr, ptr %29, align 8, !tbaa !42
  %267 = load ptr, ptr %21, align 8, !tbaa !40
  call void @N_VSetArrayPointer(ptr noundef %266, ptr noundef %267)
  %268 = load i32, ptr %37, align 4, !tbaa !43
  call void @llvm.lifetime.end.p0(i64 8, ptr %39) #6
  call void @llvm.lifetime.end.p0(i64 8, ptr %38) #6
  call void @llvm.lifetime.end.p0(i64 4, ptr %37) #6
  call void @llvm.lifetime.end.p0(i64 8, ptr %36) #6
  call void @llvm.lifetime.end.p0(i64 8, ptr %35) #6
  call void @llvm.lifetime.end.p0(i64 8, ptr %34) #6
  call void @llvm.lifetime.end.p0(i64 8, ptr %33) #6
  call void @llvm.lifetime.end.p0(i64 8, ptr %32) #6
  call void @llvm.lifetime.end.p0(i64 8, ptr %31) #6
  call void @llvm.lifetime.end.p0(i64 8, ptr %30) #6
  call void @llvm.lifetime.end.p0(i64 8, ptr %29) #6
  call void @llvm.lifetime.end.p0(i64 8, ptr %28) #6
  call void @llvm.lifetime.end.p0(i64 8, ptr %27) #6
  call void @llvm.lifetime.end.p0(i64 8, ptr %26) #6
  call void @llvm.lifetime.end.p0(i64 8, ptr %25) #6
  call void @llvm.lifetime.end.p0(i64 8, ptr %24) #6
  call void @llvm.lifetime.end.p0(i64 8, ptr %23) #6
  ret i32 %268
}