; Function Attrs: nounwind uwtable
define i32 @idaDlsDenseDQJac(i64 noundef %0, double noundef %1, double noundef %2, ptr noundef %3, ptr noundef %4, ptr noundef %5, ptr noundef readonly captures(none) %6, ptr noundef readonly captures(none) %7, ptr noundef %8, ptr noundef %9, ptr noundef readnone captures(none) %10) local_unnamed_addr #0 {
  %12 = getelementptr inbounds nuw i8, ptr %7, i64 1632
  %13 = load ptr, ptr %12, align 8, !tbaa !3
  %14 = tail call ptr @N_VGetArrayPointer(ptr noundef %9) #7
  %15 = getelementptr inbounds nuw i8, ptr %7, i64 600
  %16 = load ptr, ptr %15, align 8, !tbaa !31
  %17 = tail call ptr @N_VGetArrayPointer(ptr noundef %16) #7
  %18 = tail call ptr @N_VGetArrayPointer(ptr noundef %3) #7
  %19 = tail call ptr @N_VGetArrayPointer(ptr noundef %4) #7
  %20 = getelementptr inbounds nuw i8, ptr %7, i64 640
  %21 = load ptr, ptr %20, align 8, !tbaa !32
  %.not = icmp eq ptr %21, null
  br i1 %.not, label %24, label %22

22:                                               ; preds = %11
  %23 = tail call ptr @N_VGetArrayPointer(ptr noundef nonnull %21) #7
  br label %24

24:                                               ; preds = %22, %11
  %.090 = phi ptr [ %23, %22 ], [ null, %11 ]
  %25 = load double, ptr %7, align 8, !tbaa !33
  %26 = tail call double @SUNRsqrt(double noundef %25) #7
  %27 = icmp sgt i64 %0, 0
  br i1 %27, label %.lr.ph, label %._crit_edge

.lr.ph:                                           ; preds = %24
  %28 = getelementptr inbounds nuw i8, ptr %6, i64 72
  %29 = getelementptr inbounds nuw i8, ptr %7, i64 1168
  %30 = getelementptr inbounds nuw i8, ptr %7, i64 8
  %31 = getelementptr inbounds nuw i8, ptr %7, i64 16
  %32 = getelementptr inbounds nuw i8, ptr %13, i64 104
  %.pre = load ptr, ptr %28, align 8, !tbaa !34
  br label %33

33:                                               ; preds = %.lr.ph, %107
  %34 = phi ptr [ %.pre, %.lr.ph ], [ %111, %107 ]
  %.093100 = phi i64 [ 0, %.lr.ph ], [ %113, %107 ]
  %35 = getelementptr inbounds nuw ptr, ptr %34, i64 %.093100
  %36 = load ptr, ptr %35, align 8, !tbaa !37
  tail call void @N_VSetArrayPointer(ptr noundef %36, ptr noundef %9) #7
  %37 = getelementptr inbounds nuw double, ptr %18, i64 %.093100
  %38 = load double, ptr %37, align 8, !tbaa !38
  %39 = getelementptr inbounds nuw double, ptr %19, i64 %.093100
  %40 = load double, ptr %39, align 8, !tbaa !38
  %41 = tail call double @SUNRabs(double noundef %38) #7
  %42 = load double, ptr %29, align 8, !tbaa !39
  %43 = fmul double %40, %42
  %44 = tail call double @SUNRabs(double noundef %43) #7
  %45 = fcmp ogt double %41, %44
  br i1 %45, label %49, label %46

46:                                               ; preds = %33
  %47 = load double, ptr %29, align 8, !tbaa !39
  %48 = fmul double %40, %47
  br label %49

49:                                               ; preds = %33, %46
  %.sink = phi double [ %48, %46 ], [ %38, %33 ]
  %50 = tail call double @SUNRabs(double noundef %.sink) #7
  %51 = fmul double %26, %50
  %52 = getelementptr inbounds nuw double, ptr %17, i64 %.093100
  %53 = load double, ptr %52, align 8, !tbaa !38
  %54 = fdiv double 1.000000e+00, %53
  %55 = fcmp ogt double %51, %54
  br i1 %55, label %56, label %68

56:                                               ; preds = %49
  %57 = tail call double @SUNRabs(double noundef %38) #7
  %58 = load double, ptr %29, align 8, !tbaa !39
  %59 = fmul double %40, %58
  %60 = tail call double @SUNRabs(double noundef %59) #7
  %61 = fcmp ogt double %57, %60
  br i1 %61, label %65, label %62

62:                                               ; preds = %56
  %63 = load double, ptr %29, align 8, !tbaa !39
  %64 = fmul double %40, %63
  br label %65

65:                                               ; preds = %56, %62
  %.sink103 = phi double [ %64, %62 ], [ %38, %56 ]
  %66 = tail call double @SUNRabs(double noundef %.sink103) #7
  %67 = fmul double %26, %66
  br label %68

68:                                               ; preds = %49, %65
  %69 = phi double [ %67, %65 ], [ %54, %49 ]
  %70 = load double, ptr %29, align 8, !tbaa !39
  %71 = fmul double %40, %70
  %72 = fcmp olt double %71, 0.000000e+00
  %73 = fneg double %69
  %.0 = select i1 %72, double %73, double %69
  %74 = fadd double %38, %.0
  %75 = fsub double %74, %38
  %76 = load ptr, ptr %20, align 8, !tbaa !32
  %.not98 = icmp eq ptr %76, null
  br i1 %.not98, label %97, label %77

77:                                               ; preds = %68
  %78 = getelementptr inbounds nuw double, ptr %.090, i64 %.093100
  %79 = load double, ptr %78, align 8, !tbaa !38
  %80 = tail call double @SUNRabs(double noundef %79) #7
  %81 = fcmp oeq double %80, 1.000000e+00
  br i1 %81, label %82, label %88

82:                                               ; preds = %77
  %83 = fadd double %38, %75
  %84 = fmul double %83, %79
  %85 = fcmp olt double %84, 0.000000e+00
  br i1 %85, label %86, label %97

86:                                               ; preds = %82
  %87 = fneg double %75
  br label %97

88:                                               ; preds = %77
  %89 = tail call double @SUNRabs(double noundef %79) #7
  %90 = fcmp oeq double %89, 2.000000e+00
  br i1 %90, label %91, label %97

91:                                               ; preds = %88
  %92 = fadd double %38, %75
  %93 = fmul double %92, %79
  %94 = fcmp ugt double %93, 0.000000e+00
  br i1 %94, label %97, label %95

95:                                               ; preds = %91
  %96 = fneg double %75
  br label %97

97:                                               ; preds = %86, %82, %91, %95, %88, %68
  %.1 = phi double [ %87, %86 ], [ %75, %82 ], [ %96, %95 ], [ %75, %91 ], [ %75, %88 ], [ %75, %68 ]
  %98 = load double, ptr %37, align 8, !tbaa !38
  %99 = fadd double %.1, %98
  store double %99, ptr %37, align 8, !tbaa !38
  %100 = load double, ptr %39, align 8, !tbaa !38
  %101 = tail call double @llvm.fmuladd.f64(double %2, double %.1, double %100)
  store double %101, ptr %39, align 8, !tbaa !38
  %102 = load ptr, ptr %30, align 8, !tbaa !40
  %103 = load ptr, ptr %31, align 8, !tbaa !41
  %104 = tail call i32 %102(double noundef %1, ptr noundef %3, ptr noundef %4, ptr noundef %8, ptr noundef %103) #7
  %105 = load i64, ptr %32, align 8, !tbaa !29
  %106 = add nsw i64 %105, 1
  store i64 %106, ptr %32, align 8, !tbaa !29
  %.not99 = icmp eq i32 %104, 0
  br i1 %.not99, label %107, label %._crit_edge

107:                                              ; preds = %97
  %108 = fdiv double 1.000000e+00, %.1
  %109 = fneg double %108
  tail call void @N_VLinearSum(double noundef %108, ptr noundef %8, double noundef %109, ptr noundef %5, ptr noundef %9) #7
  %110 = tail call ptr @N_VGetArrayPointer(ptr noundef %9) #7
  %111 = load ptr, ptr %28, align 8, !tbaa !34
  %112 = getelementptr inbounds nuw ptr, ptr %111, i64 %.093100
  store ptr %110, ptr %112, align 8, !tbaa !37
  store double %38, ptr %37, align 8, !tbaa !38
  store double %40, ptr %39, align 8, !tbaa !38
  %113 = add nuw nsw i64 %.093100, 1
  %exitcond.not = icmp eq i64 %113, %0
  br i1 %exitcond.not, label %._crit_edge, label %33, !llvm.loop !42

._crit_edge:                                      ; preds = %107, %97, %24
  %.192 = phi i32 [ 0, %24 ], [ %104, %97 ], [ 0, %107 ]
  tail call void @N_VSetArrayPointer(ptr noundef %14, ptr noundef %9) #7
  ret i32 %.192
}